target datalayout = "e-m:e-p270:32:32-p271:32:32-p272:64:64-i64:64-i128:128-f80:128-n8:16:32:64-S128"
target triple = "x86_64-pc-linux-gnu"

; Function Attrs: nounwind uwtable
define internal void @pred4x4_down_right_12_c(ptr noundef %0, ptr noundef %1, i64 noundef %2) #1 {
  %4 = alloca ptr, align 8
  %5 = alloca ptr, align 8
  %6 = alloca i64, align 8
  %7 = alloca ptr, align 8
  %8 = alloca i32, align 4
  %9 = alloca i32, align 4
  %10 = alloca i32, align 4
  %11 = alloca i32, align 4
  %12 = alloca i32, align 4
  %13 = alloca i32, align 4
  %14 = alloca i32, align 4
  %15 = alloca i32, align 4
  %16 = alloca i32, align 4
  %17 = alloca i32, align 4
  store ptr %0, ptr %4, align 8, !tbaa !12
  store ptr %1, ptr %5, align 8, !tbaa !12
  store i64 %2, ptr %6, align 8, !tbaa !14
  call void @llvm.lifetime.start.p0(i64 8, ptr %7) #9
  %18 = load ptr, ptr %4, align 8, !tbaa !12
  store ptr %18, ptr %7, align 8, !tbaa !16
  call void @llvm.lifetime.start.p0(i64 4, ptr %8) #9
  %19 = load i64, ptr %6, align 8, !tbaa !14
  %20 = ashr i64 %19, 1
  %21 = trunc i64 %20 to i32
  store i32 %21, ptr %8, align 4, !tbaa !9
  call void @llvm.lifetime.start.p0(i64 4, ptr %9) #9
  %22 = load ptr, ptr %7, align 8, !tbaa !16
  %23 = load i32, ptr %8, align 4, !tbaa !9
  %24 = mul nsw i32 1, %23
  %25 = sub nsw i32 -1, %24
  %26 = sext i32 %25 to i64
  %27 = getelementptr inbounds i16, ptr %22, i64 %26
  %28 = load i16, ptr %27, align 2, !tbaa !19
  %29 = zext i16 %28 to i32
  store i32 %29, ptr %9, align 4, !tbaa !9
  call void @llvm.lifetime.start.p0(i64 4, ptr %10) #9
  %30 = load ptr, ptr %7, align 8, !tbaa !16
  %31 = load i32, ptr %8, align 4, !tbaa !9
  %32 = mul nsw i32 1, %31
  %33 = sub nsw i32 0, %32
  %34 = sext i32 %33 to i64
  %35 = getelementptr inbounds i16, ptr %30, i64 %34
  %36 = load i16, ptr %35, align 2, !tbaa !19
  %37 = zext i16 %36 to i32
  store i32 %37, ptr %10, align 4, !tbaa !9
  call void @llvm.lifetime.start.p0(i64 4, ptr %11) #9
  %38 = load ptr, ptr %7, align 8, !tbaa !16
  %39 = load i32, ptr %8, align 4, !tbaa !9
  %40 = mul nsw i32 1, %39
  %41 = sub nsw i32 1, %40
  %42 = sext i32 %41 to i64
  %43 = getelementptr inbounds i16, ptr %38, i64 %42
  %44 = load i16, ptr %43, align 2, !tbaa !19
  %45 = zext i16 %44 to i32
  store i32 %45, ptr %11, align 4, !tbaa !9
  call void @llvm.lifetime.start.p0(i64 4, ptr %12) #9
  %46 = load ptr, ptr %7, align 8, !tbaa !16
  %47 = load i32, ptr %8, align 4, !tbaa !9
  %48 = mul nsw i32 1, %47
  %49 = sub nsw i32 2, %48
  %50 = sext i32 %49 to i64
  %51 = getelementptr inbounds i16, ptr %46, i64 %50
  %52 = load i16, ptr %51, align 2, !tbaa !19
  %53 = zext i16 %52 to i32
  store i32 %53, ptr %12, align 4, !tbaa !9
  call void @llvm.lifetime.start.p0(i64 4, ptr %13) #9
  %54 = load ptr, ptr %7, align 8, !tbaa !16
  %55 = load i32, ptr %8, align 4, !tbaa !9
  %56 = mul nsw i32 1, %55
  %57 = sub nsw i32 3, %56
  %58 = sext i32 %57 to i64
  %59 = getelementptr inbounds i16, ptr %54, i64 %58
  %60 = load i16, ptr %59, align 2, !tbaa !19
  %61 = zext i16 %60 to i32
  store i32 %61, ptr %13, align 4, !tbaa !9
  call void @llvm.lifetime.start.p0(i64 4, ptr %14) #9
  %62 = load ptr, ptr %7, align 8, !tbaa !16
  %63 = load i32, ptr %8, align 4, !tbaa !9
  %64 = mul nsw i32 0, %63
  %65 = add nsw i32 -1, %64
  %66 = sext i32 %65 to i64
  %67 = getelementptr inbounds i16, ptr %62, i64 %66
  %68 = load i16, ptr %67, align 2, !tbaa !19
  %69 = zext i16 %68 to i32
  store i32 %69, ptr %14, align 4, !tbaa !9
  call void @llvm.lifetime.start.p0(i64 4, ptr %15) #9
  %70 = load ptr, ptr %7, align 8, !tbaa !16
  %71 = load i32, ptr %8, align 4, !tbaa !9
  %72 = mul nsw i32 1, %71
  %73 = add nsw i32 -1, %72
  %74 = sext i32 %73 to i64
  %75 = getelementptr inbounds i16, ptr %70, i64 %74
  %76 = load i16, ptr %75, align 2, !tbaa !19
  %77 = zext i16 %76 to i32
  store i32 %77, ptr %15, align 4, !tbaa !9
  call void @llvm.lifetime.start.p0(i64 4, ptr %16) #9
  %78 = load ptr, ptr %7, align 8, !tbaa !16
  %79 = load i32, ptr %8, align 4, !tbaa !9
  %80 = mul nsw i32 2, %79
  %81 = add nsw i32 -1, %80
  %82 = sext i32 %81 to i64
  %83 = getelementptr inbounds i16, ptr %78, i64 %82
  %84 = load i16, ptr %83, align 2, !tbaa !19
  %85 = zext i16 %84 to i32
  store i32 %85, ptr %16, align 4, !tbaa !9
  call void @llvm.lifetime.start.p0(i64 4, ptr %17) #9
  %86 = load ptr, ptr %7, align 8, !tbaa !16
  %87 = load i32, ptr %8, align 4, !tbaa !9
  %88 = mul nsw i32 3, %87
  %89 = add nsw i32 -1, %88
  %90 = sext i32 %89 to i64
  %91 = getelementptr inbounds i16, ptr %86, i64 %90
  %92 = load i16, ptr %91, align 2, !tbaa !19
  %93 = zext i16 %92 to i32
  store i32 %93, ptr %17, align 4, !tbaa !9
  %94 = load i32, ptr %17, align 4, !tbaa !9
  %95 = load i32, ptr %16, align 4, !tbaa !9
  %96 = mul i32 2, %95
  %97 = add i32 %94, %96
  %98 = load i32, ptr %15, align 4, !tbaa !9
  %99 = add i32 %97, %98
  %100 = add i32 %99, 2
  %101 = lshr i32 %100, 2
  %102 = trunc i32 %101 to i16
  %103 = load ptr, ptr %7, align 8, !tbaa !16
  %104 = load i32, ptr %8, align 4, !tbaa !9
  %105 = mul nsw i32 3, %104
  %106 = add nsw i32 0, %105
  %107 = sext i32 %106 to i64
  %108 = getelementptr inbounds i16, ptr %103, i64 %107
  store i16 %102, ptr %108, align 2, !tbaa !19
  %109 = load i32, ptr %16, align 4, !tbaa !9
  %110 = load i32, ptr %15, align 4, !tbaa !9
  %111 = mul i32 2, %110
  %112 = add i32 %109, %111
  %113 = load i32, ptr %14, align 4, !tbaa !9
  %114 = add i32 %112, %113
  %115 = add i32 %114, 2
  %116 = lshr i32 %115, 2
  %117 = trunc i32 %116 to i16
  %118 = load ptr, ptr %7, align 8, !tbaa !16
  %119 = load i32, ptr %8, align 4, !tbaa !9
  %120 = mul nsw i32 3, %119
  %121 = add nsw i32 1, %120
  %122 = sext i32 %121 to i64
  %123 = getelementptr inbounds i16, ptr %118, i64 %122
  store i16 %117, ptr %123, align 2, !tbaa !19
  %124 = load ptr, ptr %7, align 8, !tbaa !16
  %125 = load i32, ptr %8, align 4, !tbaa !9
  %126 = mul nsw i32 2, %125
  %127 = add nsw i32 0, %126
  %128 = sext i32 %127 to i64
  %129 = getelementptr inbounds i16, ptr %124, i64 %128
  store i16 %117, ptr %129, align 2, !tbaa !19
  %130 = load i32, ptr %15, align 4, !tbaa !9
  %131 = load i32, ptr %14, align 4, !tbaa !9
  %132 = mul i32 2, %131
  %133 = add i32 %130, %132
  %134 = load i32, ptr %9, align 4, !tbaa !9
  %135 = add i32 %133, %134
  %136 = add i32 %135, 2
  %137 = lshr i32 %136, 2
  %138 = trunc i32 %137 to i16
  %139 = load ptr, ptr %7, align 8, !tbaa !16
  %140 = load i32, ptr %8, align 4, !tbaa !9
  %141 = mul nsw i32 3, %140
  %142 = add nsw i32 2, %141
  %143 = sext i32 %142 to i64
  %144 = getelementptr inbounds i16, ptr %139, i64 %143
  store i16 %138, ptr %144, align 2, !tbaa !19
  %145 = load ptr, ptr %7, align 8, !tbaa !16
  %146 = load i32, ptr %8, align 4, !tbaa !9
  %147 = mul nsw i32 2, %146
  %148 = add nsw i32 1, %147
  %149 = sext i32 %148 to i64
  %150 = getelementptr inbounds i16, ptr %145, i64 %149
  store i16 %138, ptr %150, align 2, !tbaa !19
  %151 = load ptr, ptr %7, align 8, !tbaa !16
  %152 = load i32, ptr %8, align 4, !tbaa !9
  %153 = mul nsw i32 1, %152
  %154 = add nsw i32 0, %153
  %155 = sext i32 %154 to i64
  %156 = getelementptr inbounds i16, ptr %151, i64 %155
  store i16 %138, ptr %156, align 2, !tbaa !19
  %157 = load i32, ptr %14, align 4, !tbaa !9
  %158 = load i32, ptr %9, align 4, !tbaa !9
  %159 = mul nsw i32 2, %158
  %160 = add i32 %157, %159
  %161 = load i32, ptr %10, align 4, !tbaa !9
  %162 = add i32 %160, %161
  %163 = add i32 %162, 2
  %164 = lshr i32 %163, 2
  %165 = trunc i32 %164 to i16
  %166 = load ptr, ptr %7, align 8, !tbaa !16
  %167 = load i32, ptr %8, align 4, !tbaa !9
  %168 = mul nsw i32 3, %167
  %169 = add nsw i32 3, %168
  %170 = sext i32 %169 to i64
  %171 = getelementptr inbounds i16, ptr %166, i64 %170
  store i16 %165, ptr %171, align 2, !tbaa !19
  %172 = load ptr, ptr %7, align 8, !tbaa !16
  %173 = load i32, ptr %8, align 4, !tbaa !9
  %174 = mul nsw i32 2, %173
  %175 = add nsw i32 2, %174
  %176 = sext i32 %175 to i64
  %177 = getelementptr inbounds i16, ptr %172, i64 %176
  store i16 %165, ptr %177, align 2, !tbaa !19
  %178 = load ptr, ptr %7, align 8, !tbaa !16
  %179 = load i32, ptr %8, align 4, !tbaa !9
  %180 = mul nsw i32 1, %179
  %181 = add nsw i32 1, %180
  %182 = sext i32 %181 to i64
  %183 = getelementptr inbounds i16, ptr %178, i64 %182
  store i16 %165, ptr %183, align 2, !tbaa !19
  %184 = load ptr, ptr %7, align 8, !tbaa !16
  %185 = load i32, ptr %8, align 4, !tbaa !9
  %186 = mul nsw i32 0, %185
  %187 = add nsw i32 0, %186
  %188 = sext i32 %187 to i64
  %189 = getelementptr inbounds i16, ptr %184, i64 %188
  store i16 %165, ptr %189, align 2, !tbaa !19
  %190 = load i32, ptr %9, align 4, !tbaa !9
  %191 = load i32, ptr %10, align 4, !tbaa !9
  %192 = mul i32 2, %191
  %193 = add i32 %190, %192
  %194 = load i32, ptr %11, align 4, !tbaa !9
  %195 = add i32 %193, %194
  %196 = add i32 %195, 2
  %197 = lshr i32 %196, 2
  %198 = trunc i32 %197 to i16
  %199 = load ptr, ptr %7, align 8, !tbaa !16
  %200 = load i32, ptr %8, align 4, !tbaa !9
  %201 = mul nsw i32 2, %200
  %202 = add nsw i32 3, %201
  %203 = sext i32 %202 to i64
  %204 = getelementptr inbounds i16, ptr %199, i64 %203
  store i16 %198, ptr %204, align 2, !tbaa !19
  %205 = load ptr, ptr %7, align 8, !tbaa !16
  %206 = load i32, ptr %8, align 4, !tbaa !9
  %207 = mul nsw i32 1, %206
  %208 = add nsw i32 2, %207
  %209 = sext i32 %208 to i64
  %210 = getelementptr inbounds i16, ptr %205, i64 %209
  store i16 %198, ptr %210, align 2, !tbaa !19
  %211 = load ptr, ptr %7, align 8, !tbaa !16
  %212 = load i32, ptr %8, align 4, !tbaa !9
  %213 = mul nsw i32 0, %212
  %214 = add nsw i32 1, %213
  %215 = sext i32 %214 to i64
  %216 = getelementptr inbounds i16, ptr %211, i64 %215
  store i16 %198, ptr %216, align 2, !tbaa !19
  %217 = load i32, ptr %10, align 4, !tbaa !9
  %218 = load i32, ptr %11, align 4, !tbaa !9
  %219 = mul i32 2, %218
  %220 = add i32 %217, %219
  %221 = load i32, ptr %12, align 4, !tbaa !9
  %222 = add i32 %220, %221
  %223 = add i32 %222, 2
  %224 = lshr i32 %223, 2
  %225 = trunc i32 %224 to i16
  %226 = load ptr, ptr %7, align 8, !tbaa !16
  %227 = load i32, ptr %8, align 4, !tbaa !9
  %228 = mul nsw i32 1, %227
  %229 = add nsw i32 3, %228
  %230 = sext i32 %229 to i64
  %231 = getelementptr inbounds i16, ptr %226, i64 %230
  store i16 %225, ptr %231, align 2, !tbaa !19
  %232 = load ptr, ptr %7, align 8, !tbaa !16
  %233 = load i32, ptr %8, align 4, !tbaa !9
  %234 = mul nsw i32 0, %233
  %235 = add nsw i32 2, %234
  %236 = sext i32 %235 to i64
  %237 = getelementptr inbounds i16, ptr %232, i64 %236
  store i16 %225, ptr %237, align 2, !tbaa !19
  %238 = load i32, ptr %11, align 4, !tbaa !9
  %239 = load i32, ptr %12, align 4, !tbaa !9
  %240 = mul i32 2, %239
  %241 = add i32 %238, %240
  %242 = load i32, ptr %13, align 4, !tbaa !9
  %243 = add i32 %241, %242
  %244 = add i32 %243, 2
  %245 = lshr i32 %244, 2
  %246 = trunc i32 %245 to i16
  %247 = load ptr, ptr %7, align 8, !tbaa !16
  %248 = load i32, ptr %8, align 4, !tbaa !9
  %249 = mul nsw i32 0, %248
  %250 = add nsw i32 3, %249
  %251 = sext i32 %250 to i64
  %252 = getelementptr inbounds i16, ptr %247, i64 %251
  store i16 %246, ptr %252, align 2, !tbaa !19
  call void @llvm.lifetime.end.p0(i64 4, ptr %17) #9
  call void @llvm.lifetime.end.p0(i64 4, ptr %16) #9
  call void @llvm.lifetime.end.p0(i64 4, ptr %15) #9
  call void @llvm.lifetime.end.p0(i64 4, ptr %14) #9
  call void @llvm.lifetime.end.p0(i64 4, ptr %13) #9
  call void @llvm.lifetime.end.p0(i64 4, ptr %12) #9
  call void @llvm.lifetime.end.p0(i64 4, ptr %11) #9
  call void @llvm.lifetime.end.p0(i64 4, ptr %10) #9
  call void @llvm.lifetime.end.p0(i64 4, ptr %9) #9
  call void @llvm.lifetime.end.p0(i64 4, ptr %8) #9
  call void @llvm.lifetime.end.p0(i64 8, ptr %7) #9
  ret void
}