; Function Attrs: mustprogress nofree norecurse nosync nounwind willreturn memory(argmem: readwrite) uwtable
define internal void @pred4x4_down_right_12_c(ptr noundef captures(none) %0, ptr readnone captures(none) %1, i64 noundef %2) #1 {
  %4 = lshr i64 %2, 1
  %5 = trunc i64 %4 to i32
  %6 = xor i64 %4, -1
  %sext = shl i64 %6, 32
  %7 = ashr exact i64 %sext, 31
  %8 = getelementptr inbounds i8, ptr %0, i64 %7
  %9 = load i16, ptr %8, align 2, !tbaa !9
  %10 = zext i16 %9 to i32
  %.neg = mul i64 %4, -4294967296
  %11 = ashr exact i64 %.neg, 31
  %12 = getelementptr inbounds i8, ptr %0, i64 %11
  %13 = load i16, ptr %12, align 2, !tbaa !9
  %14 = zext i16 %13 to i32
  %15 = shl i64 %4, 32
  %sext73 = sub i64 4294967296, %15
  %16 = ashr exact i64 %sext73, 31
  %17 = getelementptr inbounds i8, ptr %0, i64 %16
  %18 = load i16, ptr %17, align 2, !tbaa !9
  %19 = zext i16 %18 to i32
  %sext74 = sub i64 8589934592, %15
  %20 = ashr exact i64 %sext74, 31
  %21 = getelementptr inbounds i8, ptr %0, i64 %20
  %22 = load i16, ptr %21, align 2, !tbaa !9
  %23 = zext i16 %22 to i32
  %sext75 = sub i64 12884901888, %15
  %24 = ashr exact i64 %sext75, 31
  %25 = getelementptr inbounds i8, ptr %0, i64 %24
  %26 = load i16, ptr %25, align 2, !tbaa !9
  %27 = zext i16 %26 to i32
  %28 = getelementptr inbounds i8, ptr %0, i64 -2
  %29 = load i16, ptr %28, align 2, !tbaa !9
  %30 = zext i16 %29 to i32
  %sext76 = add i64 %15, -4294967296
  %31 = ashr exact i64 %sext76, 31
  %32 = getelementptr inbounds i8, ptr %0, i64 %31
  %33 = load i16, ptr %32, align 2, !tbaa !9
  %34 = zext i16 %33 to i32
  %35 = shl nsw i32 %5, 1
  %36 = sext i32 %35 to i64
  %37 = getelementptr i16, ptr %0, i64 %36
  %38 = getelementptr i8, ptr %37, i64 -2
  %39 = load i16, ptr %38, align 2, !tbaa !9
  %40 = zext i16 %39 to i32
  %sext81 = mul i64 %4, 12884901888
  %41 = ashr exact i64 %sext81, 31
  %42 = getelementptr i8, ptr %0, i64 %41
  %43 = getelementptr i8, ptr %42, i64 -2
  %44 = load i16, ptr %43, align 2, !tbaa !9
  %45 = zext i16 %44 to i32
  %46 = shl nuw nsw i32 %40, 1
  %47 = add nuw nsw i32 %34, 2
  %48 = add nuw nsw i32 %47, %45
  %49 = add nuw nsw i32 %48, %46
  %50 = lshr i32 %49, 2
  %51 = trunc nuw i32 %50 to i16
  store i16 %51, ptr %42, align 2, !tbaa !9
  %52 = shl nuw nsw i32 %34, 1
  %53 = add nuw nsw i32 %30, 2
  %54 = add nuw nsw i32 %53, %40
  %55 = add nuw nsw i32 %54, %52
  %56 = lshr i32 %55, 2
  %57 = trunc nuw i32 %56 to i16
  %58 = getelementptr i8, ptr %42, i64 2
  store i16 %57, ptr %58, align 2, !tbaa !9
  store i16 %57, ptr %37, align 2, !tbaa !9
  %59 = shl nuw nsw i32 %30, 1
  %60 = add nuw nsw i32 %10, 2
  %61 = add nuw nsw i32 %60, %34
  %62 = add nuw nsw i32 %61, %59
  %63 = lshr i32 %62, 2
  %64 = trunc nuw i32 %63 to i16
  %65 = getelementptr i8, ptr %42, i64 4
  store i16 %64, ptr %65, align 2, !tbaa !9
  %66 = getelementptr i8, ptr %37, i64 2
  store i16 %64, ptr %66, align 2, !tbaa !9
  %67 = ashr exact i64 %15, 31
  %68 = getelementptr inbounds i8, ptr %0, i64 %67
  store i16 %64, ptr %68, align 2, !tbaa !9
  %69 = shl nuw nsw i32 %10, 1
  %70 = add nuw nsw i32 %14, 2
  %71 = add nuw nsw i32 %70, %69
  %72 = add nuw nsw i32 %71, %30
  %73 = lshr i32 %72, 2
  %74 = trunc nuw i32 %73 to i16
  %75 = getelementptr i8, ptr %42, i64 6
  store i16 %74, ptr %75, align 2, !tbaa !9
  %76 = getelementptr i8, ptr %37, i64 4
  store i16 %74, ptr %76, align 2, !tbaa !9
  %sext78 = add i64 %15, 4294967296
  %77 = ashr exact i64 %sext78, 31
  %78 = getelementptr inbounds i8, ptr %0, i64 %77
  store i16 %74, ptr %78, align 2, !tbaa !9
  store i16 %74, ptr %0, align 2, !tbaa !9
  %79 = shl nuw nsw i32 %14, 1
  %80 = add nuw nsw i32 %60, %79
  %81 = add nuw nsw i32 %80, %19
  %82 = lshr i32 %81, 2
  %83 = trunc nuw i32 %82 to i16
  %84 = getelementptr i8, ptr %37, i64 6
  store i16 %83, ptr %84, align 2, !tbaa !9
  %sext79 = add i64 %15, 8589934592
  %85 = ashr exact i64 %sext79, 31
  %86 = getelementptr inbounds i8, ptr %0, i64 %85
  store i16 %83, ptr %86, align 2, !tbaa !9
  %87 = getelementptr inbounds nuw i8, ptr %0, i64 2
  store i16 %83, ptr %87, align 2, !tbaa !9
  %88 = shl nuw nsw i32 %19, 1
  %89 = add nuw nsw i32 %70, %88
  %90 = add nuw nsw i32 %89, %23
  %91 = lshr i32 %90, 2
  %92 = trunc nuw i32 %91 to i16
  %sext80 = add i64 %15, 12884901888
  %93 = ashr exact i64 %sext80, 31
  %94 = getelementptr inbounds i8, ptr %0, i64 %93
  store i16 %92, ptr %94, align 2, !tbaa !9
  %95 = getelementptr inbounds nuw i8, ptr %0, i64 4
  store i16 %92, ptr %95, align 2, !tbaa !9
  %96 = shl nuw nsw i32 %23, 1
  %97 = add nuw nsw i32 %19, 2
  %98 = add nuw nsw i32 %97, %96
  %99 = add nuw nsw i32 %98, %27
  %100 = lshr i32 %99, 2
  %101 = trunc nuw i32 %100 to i16
  %102 = getelementptr inbounds nuw i8, ptr %0, i64 6
  store i16 %101, ptr %102, align 2, !tbaa !9
  ret void
}